target datalayout = "e-m:e-p270:32:32-p271:32:32-p272:64:64-i64:64-i128:128-f80:128-n8:16:32:64-S128"
target triple = "x86_64-unknown-linux-gnu"

%struct.anon.0 = type { %struct.dtoa_alloc, [287 x double] }
%struct.dtoa_alloc = type { i32, i32, ptr, [8 x ptr], [1 x double] }
%struct.Bigint = type { ptr, i32, i32, i32, i32, [1 x i32] }

@pow5mult.p05 = internal global [3 x i32] [i32 5, i32 25, i32 125], align 4
@p5s = internal global ptr null, align 8
@cache = internal global %struct.anon.0 zeroinitializer, align 8

; Function Attrs: nounwind uwtable
define internal ptr @Balloc(ptr noundef %dalloc, i32 noundef %k) #0 {
entry:
  %dalloc.addr = alloca ptr, align 8
  %k.addr = alloca i32, align 4
  %x = alloca i32, align 4
  %rv = alloca ptr, align 8
  %len = alloca i32, align 4
  store ptr %dalloc, ptr %dalloc.addr, align 8
  store i32 %k, ptr %k.addr, align 4
  %0 = load i32, ptr %k.addr, align 4
  %cmp = icmp sle i32 %0, 7
  br i1 %cmp, label %land.lhs.true, label %if.else

land.lhs.true:                                    ; preds = %entry
  %1 = load ptr, ptr %dalloc.addr, align 8
  %freelist = getelementptr inbounds %struct.dtoa_alloc, ptr %1, i32 0, i32 3
  %2 = load i32, ptr %k.addr, align 4
  %idxprom = sext i32 %2 to i64
  %arrayidx = getelementptr inbounds [8 x ptr], ptr %freelist, i64 0, i64 %idxprom
  %3 = load ptr, ptr %arrayidx, align 8
  store ptr %3, ptr %rv, align 8
  %tobool = icmp ne ptr %3, null
  br i1 %tobool, label %if.then, label %if.else

if.then:                                          ; preds = %land.lhs.true
  %4 = load ptr, ptr %rv, align 8
  %next = getelementptr inbounds %struct.Bigint, ptr %4, i32 0, i32 0
  %5 = load ptr, ptr %next, align 8
  %6 = load ptr, ptr %dalloc.addr, align 8
  %freelist1 = getelementptr inbounds %struct.dtoa_alloc, ptr %6, i32 0, i32 3
  %7 = load i32, ptr %k.addr, align 4
  %idxprom2 = sext i32 %7 to i64
  %arrayidx3 = getelementptr inbounds [8 x ptr], ptr %freelist1, i64 0, i64 %idxprom2
  store ptr %5, ptr %arrayidx3, align 8
  br label %if.end22

if.else:                                          ; preds = %land.lhs.true, %entry
  %8 = load i32, ptr %k.addr, align 4
  %shl = shl i32 1, %8
  store i32 %shl, ptr %x, align 4
  %9 = load i32, ptr %x, align 4
  %sub = sub nsw i32 %9, 1
  %conv = sext i32 %sub to i64
  %mul = mul i64 %conv, 4
  %add = add i64 32, %mul
  %add4 = add i64 %add, 8
  %sub5 = sub i64 %add4, 1
  %div = udiv i64 %sub5, 8
  %conv6 = trunc i64 %div to i32
  store i32 %conv6, ptr %len, align 4
  %10 = load i32, ptr %k.addr, align 4
  %cmp7 = icmp sle i32 %10, 7
  br i1 %cmp7, label %land.lhs.true9, label %if.else18

land.lhs.true9:                                   ; preds = %if.else
  %11 = load ptr, ptr %dalloc.addr, align 8
  %pmem_next = getelementptr inbounds %struct.dtoa_alloc, ptr %11, i32 0, i32 2
  %12 = load ptr, ptr %pmem_next, align 8
  %13 = load ptr, ptr %dalloc.addr, align 8
  %private_mem = getelementptr inbounds %struct.dtoa_alloc, ptr %13, i32 0, i32 4
  %arraydecay = getelementptr inbounds [1 x double], ptr %private_mem, i64 0, i64 0
  %sub.ptr.lhs.cast = ptrtoint ptr %12 to i64
  %sub.ptr.rhs.cast = ptrtoint ptr %arraydecay to i64
  %sub.ptr.sub = sub i64 %sub.ptr.lhs.cast, %sub.ptr.rhs.cast
  %sub.ptr.div = sdiv exact i64 %sub.ptr.sub, 8
  %14 = load i32, ptr %len, align 4
  %conv10 = zext i32 %14 to i64
  %add11 = add nsw i64 %sub.ptr.div, %conv10
  %15 = load ptr, ptr %dalloc.addr, align 8
  %pmem_len = getelementptr inbounds %struct.dtoa_alloc, ptr %15, i32 0, i32 0
  %16 = load i32, ptr %pmem_len, align 8
  %conv12 = sext i32 %16 to i64
  %cmp13 = icmp sle i64 %add11, %conv12
  br i1 %cmp13, label %if.then15, label %if.else18

if.then15:                                        ; preds = %land.lhs.true9
  %17 = load ptr, ptr %dalloc.addr, align 8
  %pmem_next16 = getelementptr inbounds %struct.dtoa_alloc, ptr %17, i32 0, i32 2
  %18 = load ptr, ptr %pmem_next16, align 8
  store ptr %18, ptr %rv, align 8
  %19 = load i32, ptr %len, align 4
  %20 = load ptr, ptr %dalloc.addr, align 8
  %pmem_next17 = getelementptr inbounds %struct.dtoa_alloc, ptr %20, i32 0, i32 2
  %21 = load ptr, ptr %pmem_next17, align 8
  %idx.ext = zext i32 %19 to i64
  %add.ptr = getelementptr inbounds double, ptr %21, i64 %idx.ext
  store ptr %add.ptr, ptr %pmem_next17, align 8
  br label %if.end

if.else18:                                        ; preds = %land.lhs.true9, %if.else
  %22 = load i32, ptr %len, align 4
  %conv19 = zext i32 %22 to i64
  %mul20 = mul i64 %conv19, 8
  %call = call noalias ptr @malloc(i64 noundef %mul20) #11
  store ptr %call, ptr %rv, align 8
  %23 = load ptr, ptr %dalloc.addr, align 8
  %used_heap = getelementptr inbounds %struct.dtoa_alloc, ptr %23, i32 0, i32 1
  store i32 1, ptr %used_heap, align 4
  br label %if.end

if.end:                                           ; preds = %if.else18, %if.then15
  %24 = load i32, ptr %k.addr, align 4
  %25 = load ptr, ptr %rv, align 8
  %k21 = getelementptr inbounds %struct.Bigint, ptr %25, i32 0, i32 1
  store i32 %24, ptr %k21, align 8
  %26 = load i32, ptr %x, align 4
  %27 = load ptr, ptr %rv, align 8
  %maxwds = getelementptr inbounds %struct.Bigint, ptr %27, i32 0, i32 2
  store i32 %26, ptr %maxwds, align 4
  br label %if.end22

if.end22:                                         ; preds = %if.end, %if.then
  %28 = load ptr, ptr %rv, align 8
  %wds = getelementptr inbounds %struct.Bigint, ptr %28, i32 0, i32 4
  store i32 0, ptr %wds, align 4
  %29 = load ptr, ptr %rv, align 8
  %sign = getelementptr inbounds %struct.Bigint, ptr %29, i32 0, i32 3
  store i32 0, ptr %sign, align 8
  %30 = load ptr, ptr %rv, align 8
  ret ptr %30
}

; Function Attrs: nounwind uwtable
define internal void @Bfree(ptr noundef %dalloc, ptr noundef %v) #0 {
entry:
  %dalloc.addr = alloca ptr, align 8
  %v.addr = alloca ptr, align 8
  store ptr %dalloc, ptr %dalloc.addr, align 8
  store ptr %v, ptr %v.addr, align 8
  %0 = load ptr, ptr %v.addr, align 8
  %tobool = icmp ne ptr %0, null
  br i1 %tobool, label %if.then, label %if.end7

if.then:                                          ; preds = %entry
  %1 = load ptr, ptr %v.addr, align 8
  %k = getelementptr inbounds %struct.Bigint, ptr %1, i32 0, i32 1
  %2 = load i32, ptr %k, align 8
  %cmp = icmp sgt i32 %2, 7
  br i1 %cmp, label %if.then1, label %if.else

if.then1:                                         ; preds = %if.then
  %3 = load ptr, ptr %v.addr, align 8
  call void @free(ptr noundef %3) #9
  br label %if.end

if.else:                                          ; preds = %if.then
  %4 = load ptr, ptr %dalloc.addr, align 8
  %freelist = getelementptr inbounds %struct.dtoa_alloc, ptr %4, i32 0, i32 3
  %5 = load ptr, ptr %v.addr, align 8
  %k2 = getelementptr inbounds %struct.Bigint, ptr %5, i32 0, i32 1
  %6 = load i32, ptr %k2, align 8
  %idxprom = sext i32 %6 to i64
  %arrayidx = getelementptr inbounds [8 x ptr], ptr %freelist, i64 0, i64 %idxprom
  %7 = load ptr, ptr %arrayidx, align 8
  %8 = load ptr, ptr %v.addr, align 8
  %next = getelementptr inbounds %struct.Bigint, ptr %8, i32 0, i32 0
  store ptr %7, ptr %next, align 8
  %9 = load ptr, ptr %v.addr, align 8
  %10 = load ptr, ptr %dalloc.addr, align 8
  %freelist3 = getelementptr inbounds %struct.dtoa_alloc, ptr %10, i32 0, i32 3
  %11 = load ptr, ptr %v.addr, align 8
  %k4 = getelementptr inbounds %struct.Bigint, ptr %11, i32 0, i32 1
  %12 = load i32, ptr %k4, align 8
  %idxprom5 = sext i32 %12 to i64
  %arrayidx6 = getelementptr inbounds [8 x ptr], ptr %freelist3, i64 0, i64 %idxprom5
  store ptr %9, ptr %arrayidx6, align 8
  br label %if.end

if.end:                                           ; preds = %if.else, %if.then1
  br label %if.end7

if.end7:                                          ; preds = %if.end, %entry
  ret void
}

; Function Attrs: nounwind uwtable
define internal ptr @i2b(ptr noundef %dalloc, i32 noundef %i) #0 {
entry:
  %dalloc.addr = alloca ptr, align 8
  %i.addr = alloca i32, align 4
  %b = alloca ptr, align 8
  store ptr %dalloc, ptr %dalloc.addr, align 8
  store i32 %i, ptr %i.addr, align 4
  %0 = load ptr, ptr %dalloc.addr, align 8
  %call = call ptr @Balloc(ptr noundef %0, i32 noundef 1)
  store ptr %call, ptr %b, align 8
  %1 = load i32, ptr %i.addr, align 4
  %2 = load ptr, ptr %b, align 8
  %x = getelementptr inbounds %struct.Bigint, ptr %2, i32 0, i32 5
  %arrayidx = getelementptr inbounds [1 x i32], ptr %x, i64 0, i64 0
  store i32 %1, ptr %arrayidx, align 8
  %3 = load ptr, ptr %b, align 8
  %wds = getelementptr inbounds %struct.Bigint, ptr %3, i32 0, i32 4
  store i32 1, ptr %wds, align 4
  %4 = load ptr, ptr %b, align 8
  ret ptr %4
}

; Function Attrs: nounwind uwtable
define internal void @dalloc_init(ptr noundef %dalloc, i32 noundef %pmem_len) #0 {
entry:
  %dalloc.addr = alloca ptr, align 8
  %pmem_len.addr = alloca i32, align 4
  store ptr %dalloc, ptr %dalloc.addr, align 8
  store i32 %pmem_len, ptr %pmem_len.addr, align 4
  %0 = load ptr, ptr %dalloc.addr, align 8
  call void @llvm.memset.p0.i64(ptr align 8 %0, i8 0, i64 88, i1 false)
  %1 = load i32, ptr %pmem_len.addr, align 4
  %2 = load ptr, ptr %dalloc.addr, align 8
  %pmem_len1 = getelementptr inbounds %struct.dtoa_alloc, ptr %2, i32 0, i32 0
  store i32 %1, ptr %pmem_len1, align 8
  %3 = load ptr, ptr %dalloc.addr, align 8
  %private_mem = getelementptr inbounds %struct.dtoa_alloc, ptr %3, i32 0, i32 4
  %arraydecay = getelementptr inbounds [1 x double], ptr %private_mem, i64 0, i64 0
  %4 = load ptr, ptr %dalloc.addr, align 8
  %pmem_next = getelementptr inbounds %struct.dtoa_alloc, ptr %4, i32 0, i32 2
  store ptr %arraydecay, ptr %pmem_next, align 8
  ret void
}

; Function Attrs: nounwind uwtable
define internal ptr @pow5mult(ptr noundef %dalloc, ptr noundef %b, i32 noundef %k) #0 {
entry:
  %retval = alloca ptr, align 8
  %dalloc.addr = alloca ptr, align 8
  %b.addr = alloca ptr, align 8
  %k.addr = alloca i32, align 4
  %b1 = alloca ptr, align 8
  %p5 = alloca ptr, align 8
  %p51 = alloca ptr, align 8
  %i = alloca i32, align 4
  store ptr %dalloc, ptr %dalloc.addr, align 8
  store ptr %b, ptr %b.addr, align 8
  store i32 %k, ptr %k.addr, align 4
  %0 = load i32, ptr %k.addr, align 4
  %and = and i32 %0, 3
  store i32 %and, ptr %i, align 4
  %tobool = icmp ne i32 %and, 0
  br i1 %tobool, label %if.then, label %if.end

if.then:                                          ; preds = %entry
  %1 = load ptr, ptr %dalloc.addr, align 8
  %2 = load ptr, ptr %b.addr, align 8
  %3 = load i32, ptr %i, align 4
  %sub = sub nsw i32 %3, 1
  %idxprom = sext i32 %sub to i64
  %arrayidx = getelementptr inbounds [3 x i32], ptr @pow5mult.p05, i64 0, i64 %idxprom
  %4 = load i32, ptr %arrayidx, align 4
  %call = call ptr @multadd(ptr noundef %1, ptr noundef %2, i32 noundef %4, i32 noundef 0)
  store ptr %call, ptr %b.addr, align 8
  br label %if.end

if.end:                                           ; preds = %if.then, %entry
  %5 = load i32, ptr %k.addr, align 4
  %shr = ashr i32 %5, 2
  store i32 %shr, ptr %k.addr, align 4
  %tobool1 = icmp ne i32 %shr, 0
  br i1 %tobool1, label %if.end3, label %if.then2

if.then2:                                         ; preds = %if.end
  %6 = load ptr, ptr %b.addr, align 8
  store ptr %6, ptr %retval, align 8
  br label %return

if.end3:                                          ; preds = %if.end
  %7 = load ptr, ptr @p5s, align 8
  store ptr %7, ptr %p5, align 8
  %tobool4 = icmp ne ptr %7, null
  br i1 %tobool4, label %if.end10, label %if.then5

if.then5:                                         ; preds = %if.end3
  call void @ACQUIRE_DTOA_LOCK(i32 noundef 1)
  %8 = load ptr, ptr @p5s, align 8
  store ptr %8, ptr %p5, align 8
  %tobool6 = icmp ne ptr %8, null
  br i1 %tobool6, label %if.end9, label %if.then7

if.then7:                                         ; preds = %if.then5
  call void @dalloc_init(ptr noundef @cache, i32 noundef 2304)
  %call8 = call ptr @i2b(ptr noundef @cache, i32 noundef 625)
  store ptr %call8, ptr @p5s, align 8
  store ptr %call8, ptr %p5, align 8
  %9 = load ptr, ptr %p5, align 8
  %next = getelementptr inbounds %struct.Bigint, ptr %9, i32 0, i32 0
  store ptr null, ptr %next, align 8
  br label %if.end9

if.end9:                                          ; preds = %if.then7, %if.then5
  call void @FREE_DTOA_LOCK(i32 noundef 1)
  br label %if.end10

if.end10:                                         ; preds = %if.end9, %if.end3
  br label %for.cond

for.cond:                                         ; preds = %if.end30, %if.end10
  %10 = load i32, ptr %k.addr, align 4
  %and11 = and i32 %10, 1
  %tobool12 = icmp ne i32 %and11, 0
  br i1 %tobool12, label %if.then13, label %if.end15

if.then13:                                        ; preds = %for.cond
  %11 = load ptr, ptr %dalloc.addr, align 8
  %12 = load ptr, ptr %b.addr, align 8
  %13 = load ptr, ptr %p5, align 8
  %call14 = call ptr @mult(ptr noundef %11, ptr noundef %12, ptr noundef %13)
  store ptr %call14, ptr %b1, align 8
  %14 = load ptr, ptr %dalloc.addr, align 8
  %15 = load ptr, ptr %b.addr, align 8
  call void @Bfree(ptr noundef %14, ptr noundef %15)
  %16 = load ptr, ptr %b1, align 8
  store ptr %16, ptr %b.addr, align 8
  br label %if.end15

if.end15:                                         ; preds = %if.then13, %for.cond
  %17 = load i32, ptr %k.addr, align 4
  %shr16 = ashr i32 %17, 1
  store i32 %shr16, ptr %k.addr, align 4
  %tobool17 = icmp ne i32 %shr16, 0
  br i1 %tobool17, label %if.end19, label %if.then18

if.then18:                                        ; preds = %if.end15
  br label %for.end

if.end19:                                         ; preds = %if.end15
  %18 = load ptr, ptr %p5, align 8
  %next20 = getelementptr inbounds %struct.Bigint, ptr %18, i32 0, i32 0
  %19 = load ptr, ptr %next20, align 8
  store ptr %19, ptr %p51, align 8
  %tobool21 = icmp ne ptr %19, null
  br i1 %tobool21, label %if.end30, label %if.then22

if.then22:                                        ; preds = %if.end19
  call void @ACQUIRE_DTOA_LOCK(i32 noundef 1)
  %20 = load ptr, ptr %p5, align 8
  %next23 = getelementptr inbounds %struct.Bigint, ptr %20, i32 0, i32 0
  %21 = load ptr, ptr %next23, align 8
  store ptr %21, ptr %p51, align 8
  %tobool24 = icmp ne ptr %21, null
  br i1 %tobool24, label %if.end29, label %if.then25

if.then25:                                        ; preds = %if.then22
  %22 = load ptr, ptr %p5, align 8
  %23 = load ptr, ptr %p5, align 8
  %call26 = call ptr @mult(ptr noundef @cache, ptr noundef %22, ptr noundef %23)
  %24 = load ptr, ptr %p5, align 8
  %next27 = getelementptr inbounds %struct.Bigint, ptr %24, i32 0, i32 0
  store ptr %call26, ptr %next27, align 8
  store ptr %call26, ptr %p51, align 8
  %25 = load ptr, ptr %p51, align 8
  %next28 = getelementptr inbounds %struct.Bigint, ptr %25, i32 0, i32 0
  store ptr null, ptr %next28, align 8
  br label %if.end29

if.end29:                                         ; preds = %if.then25, %if.then22
  call void @FREE_DTOA_LOCK(i32 noundef 1)
  br label %if.end30

if.end30:                                         ; preds = %if.end29, %if.end19
  %26 = load ptr, ptr %p51, align 8
  store ptr %26, ptr %p5, align 8
  br label %for.cond

for.end:                                          ; preds = %if.then18
  %27 = load ptr, ptr %b.addr, align 8
  store ptr %27, ptr %retval, align 8
  br label %return

return:                                           ; preds = %for.end, %if.then2
  %28 = load ptr, ptr %retval, align 8
  ret ptr %28
}