; Function Attrs: nounwind uwtable
define internal fastcc ptr @pow5mult(ptr noundef %dalloc, ptr noundef %b, i32 noundef range(i32 1, -2147483648) %k) unnamed_addr #1 {
entry:
  %and = and i32 %k, 3
  %tobool.not = icmp eq i32 %and, 0
  br i1 %tobool.not, label %if.end, label %if.then

if.then:                                          ; preds = %entry
  %sub = add nsw i32 %and, -1
  %idxprom = zext nneg i32 %sub to i64
  %arrayidx = getelementptr inbounds nuw [3 x i32], ptr @pow5mult.p05, i64 0, i64 %idxprom
  %0 = load i32, ptr %arrayidx, align 4
  %call = tail call fastcc ptr @multadd(ptr noundef %dalloc, ptr noundef %b, i32 noundef %0, i32 noundef 0)
  br label %if.end

if.end:                                           ; preds = %if.then, %entry
  %b.addr.0 = phi ptr [ %call, %if.then ], [ %b, %entry ]
  %shr = lshr i32 %k, 2
  %tobool1.not = icmp samesign ult i32 %k, 4
  br i1 %tobool1.not, label %return, label %if.end3

if.end3:                                          ; preds = %if.end
  %1 = load ptr, ptr @p5s, align 8
  %tobool4.not = icmp eq ptr %1, null
  br i1 %tobool4.not, label %if.then5, label %if.end10

if.then5:                                         ; preds = %if.end3
  tail call void @ACQUIRE_DTOA_LOCK(i32 noundef 1) #17
  %2 = load ptr, ptr @p5s, align 8
  %tobool6.not = icmp eq ptr %2, null
  br i1 %tobool6.not, label %i2b.exit, label %if.end9

i2b.exit:                                         ; preds = %if.then5
  tail call void @llvm.memset.p0.i64(ptr noundef nonnull align 8 dereferenceable(88) @cache, i8 0, i64 80, i1 false)
  store i32 2304, ptr @cache, align 8
  store ptr getelementptr inbounds nuw (i8, ptr @cache, i64 120), ptr getelementptr inbounds nuw (i8, ptr @cache, i64 8), align 8
  store i32 1, ptr getelementptr inbounds nuw (i8, ptr @cache, i64 88), align 8
  store i32 2, ptr getelementptr inbounds nuw (i8, ptr @cache, i64 92), align 4
  store i32 0, ptr getelementptr inbounds nuw (i8, ptr @cache, i64 96), align 8
  store i32 625, ptr getelementptr inbounds nuw (i8, ptr @cache, i64 104), align 8
  store i32 1, ptr getelementptr inbounds nuw (i8, ptr @cache, i64 100), align 4
  store ptr getelementptr inbounds nuw (i8, ptr @cache, i64 80), ptr @p5s, align 8
  store ptr null, ptr getelementptr inbounds nuw (i8, ptr @cache, i64 80), align 8
  br label %if.end9

if.end9:                                          ; preds = %i2b.exit, %if.then5
  %p5.1 = phi ptr [ %2, %if.then5 ], [ getelementptr inbounds nuw (i8, ptr @cache, i64 80), %i2b.exit ]
  tail call void @FREE_DTOA_LOCK(i32 noundef 1) #17
  br label %if.end10

if.end10:                                         ; preds = %if.end9, %if.end3
  %p5.0 = phi ptr [ %1, %if.end3 ], [ %p5.1, %if.end9 ]
  %freelist.i = getelementptr inbounds nuw i8, ptr %dalloc, i64 16
  br label %for.cond

for.cond:                                         ; preds = %for.cond.backedge, %if.end10
  %k.addr.0 = phi i32 [ %shr, %if.end10 ], [ %shr16, %for.cond.backedge ]
  %b.addr.1 = phi ptr [ %b.addr.0, %if.end10 ], [ %b.addr.2, %for.cond.backedge ]
  %p5.2 = phi ptr [ %p5.0, %if.end10 ], [ %p5.2.be, %for.cond.backedge ]
  %and11 = and i32 %k.addr.0, 1
  %tobool12.not = icmp eq i32 %and11, 0
  br i1 %tobool12.not, label %if.end15, label %if.then13

if.then13:                                        ; preds = %for.cond
  %call14 = tail call fastcc ptr @mult(ptr noundef %dalloc, ptr noundef %b.addr.1, ptr noundef nonnull %p5.2)
  %tobool.not.i = icmp eq ptr %b.addr.1, null
  br i1 %tobool.not.i, label %if.end15, label %if.then.i

if.then.i:                                        ; preds = %if.then13
  %k.i = getelementptr inbounds nuw i8, ptr %b.addr.1, i64 8
  %3 = load i32, ptr %k.i, align 8
  %cmp.i = icmp sgt i32 %3, 7
  br i1 %cmp.i, label %if.then1.i, label %if.else.i

if.then1.i:                                       ; preds = %if.then.i
  tail call void @free(ptr noundef nonnull %b.addr.1) #17
  br label %if.end15

if.else.i:                                        ; preds = %if.then.i
  %idxprom.i = sext i32 %3 to i64
  %arrayidx.i = getelementptr inbounds [8 x ptr], ptr %freelist.i, i64 0, i64 %idxprom.i
  %4 = load ptr, ptr %arrayidx.i, align 8
  store ptr %4, ptr %b.addr.1, align 8
  store ptr %b.addr.1, ptr %arrayidx.i, align 8
  br label %if.end15

if.end15:                                         ; preds = %if.else.i, %if.then1.i, %if.then13, %for.cond
  %b.addr.2 = phi ptr [ %b.addr.1, %for.cond ], [ %call14, %if.then13 ], [ %call14, %if.then1.i ], [ %call14, %if.else.i ]
  %shr16 = lshr i32 %k.addr.0, 1
  %tobool17.not = icmp samesign ult i32 %k.addr.0, 2
  br i1 %tobool17.not, label %return, label %if.end19

if.end19:                                         ; preds = %if.end15
  %5 = load ptr, ptr %p5.2, align 8
  %tobool21.not = icmp eq ptr %5, null
  br i1 %tobool21.not, label %if.then22, label %for.cond.backedge

if.then22:                                        ; preds = %if.end19
  tail call void @ACQUIRE_DTOA_LOCK(i32 noundef 1) #17
  %6 = load ptr, ptr %p5.2, align 8
  %tobool24.not = icmp eq ptr %6, null
  br i1 %tobool24.not, label %if.then25, label %if.end29

if.then25:                                        ; preds = %if.then22
  %call26 = tail call fastcc ptr @mult(ptr noundef nonnull @cache, ptr noundef nonnull %p5.2, ptr noundef nonnull %p5.2)
  store ptr %call26, ptr %p5.2, align 8
  store ptr null, ptr %call26, align 8
  br label %if.end29

if.end29:                                         ; preds = %if.then25, %if.then22
  %p51.1 = phi ptr [ %6, %if.then22 ], [ %call26, %if.then25 ]
  tail call void @FREE_DTOA_LOCK(i32 noundef 1) #17
  br label %for.cond.backedge

for.cond.backedge:                                ; preds = %if.end29, %if.end19
  %p5.2.be = phi ptr [ %p51.1, %if.end29 ], [ %5, %if.end19 ]
  br label %for.cond

return:                                           ; preds = %if.end15, %if.end
  %retval.0 = phi ptr [ %b.addr.0, %if.end ], [ %b.addr.2, %if.end15 ]
  ret ptr %retval.0
}